target datalayout = "e-m:e-p270:32:32-p271:32:32-p272:64:64-i64:64-i128:128-f80:128-n8:16:32:64-S128"
target triple = "x86_64-pc-linux-gnu"

%class.Register = type { i32 }
%class.StubCodeMark = type { ptr, ptr }
%class.RelocationHolder = type { [40 x i8] }
%class.ExternalAddress = type { %class.AddressLiteral }
%class.AddressLiteral = type { %class.RelocationHolder, i8, ptr }
%class.StubCodeGenerator = type { ptr, i8, ptr }
%class.CodeSection = type { ptr, ptr, ptr, ptr, ptr, ptr, ptr, ptr, i8, i8, i32, i8, ptr }
%class.AbstractAssembler = type { ptr, ptr, ptr }

@.str = private unnamed_addr constant [13 x i8] c"StubRoutines\00", align 1
@_ZL7c_rarg3 = internal constant %class.Register { i32 1 }, align 4
@_ZL7c_rarg2 = internal constant %class.Register { i32 2 }, align 4
@_ZL7c_rarg1 = internal constant %class.Register { i32 6 }, align 4
@_ZL7c_rarg0 = internal constant %class.Register { i32 7 }, align 4
@_ZL3rax = internal constant %class.Register zeroinitializer, align 4
@CodeEntryAlignment = external global i64, align 8
@_ZL3r10 = internal constant %class.Register { i32 10 }, align 4
@_ZL3r11 = internal constant %class.Register { i32 11 }, align 4
@.str.42 = private unnamed_addr constant [17 x i8] c"updateBytesCRC32\00", align 1
@_ZN19Abstract_VM_Version9_featuresE = external global i64, align 8
@_ZN12StubRoutines3x8617_crc_table_avx512E = external constant [0 x i32], align 4

; Function Attrs: mustprogress nounwind uwtable
define linkonce_odr hidden noundef ptr @_ZNK16RelocationHolder5relocEv(ptr noundef nonnull align 8 dereferenceable(40) %0) #1 comdat align 2 {
  %2 = alloca ptr, align 8
  store ptr %0, ptr %2, align 8
  %3 = load ptr, ptr %2, align 8
  %4 = getelementptr inbounds %class.RelocationHolder, ptr %3, i32 0, i32 0
  %5 = getelementptr inbounds [40 x i8], ptr %4, i64 0, i64 0
  ret ptr %5
}

; Function Attrs: mustprogress nounwind uwtable
define linkonce_odr hidden noundef zeroext i1 @_ZN24external_word_Relocation16can_be_relocatedEPh(ptr noundef %0) #1 comdat align 2 {
  %2 = alloca ptr, align 8
  store ptr %0, ptr %2, align 8
  %3 = load ptr, ptr %2, align 8
  %4 = icmp ne ptr %3, null
  ret i1 %4
}

; Function Attrs: mustprogress nounwind uwtable
define linkonce_odr hidden void @_ZN16RelocationHolderC2ERKS_(ptr noundef nonnull align 8 dereferenceable(40) %0, ptr noundef nonnull align 8 dereferenceable(40) %1) unnamed_addr #1 comdat align 2 {
  %3 = alloca ptr, align 8
  %4 = alloca ptr, align 8
  store ptr %0, ptr %3, align 8
  store ptr %1, ptr %4, align 8
  %5 = load ptr, ptr %3, align 8
  %6 = load ptr, ptr %4, align 8
  %7 = call noundef ptr @_ZNK16RelocationHolder5relocEv(ptr noundef nonnull align 8 dereferenceable(40) %6)
  %8 = load ptr, ptr %7, align 8
  %9 = getelementptr inbounds ptr, ptr %8, i64 2
  %10 = load ptr, ptr %9, align 8
  call void %10(ptr noundef nonnull align 8 dereferenceable(20) %7, ptr noundef nonnull align 8 dereferenceable(40) %5)
  ret void
}

; Function Attrs: mustprogress nounwind uwtable
define linkonce_odr hidden noundef i32 @_ZN15ExternalAddress16reloc_for_targetEPh(ptr noundef %0) #1 comdat align 2 {
  %2 = alloca ptr, align 8
  store ptr %0, ptr %2, align 8
  %3 = load ptr, ptr %2, align 8
  %4 = call noundef zeroext i1 @_ZN24external_word_Relocation16can_be_relocatedEPh(ptr noundef %3)
  %5 = select i1 %4, i32 7, i32 0
  ret i32 %5
}

; Function Attrs: mustprogress nounwind uwtable
define linkonce_odr hidden noundef ptr @_ZNK11CodeSection3endEv(ptr noundef nonnull align 8 dereferenceable(88) %0) #1 comdat align 2 {
  %2 = alloca ptr, align 8
  store ptr %0, ptr %2, align 8
  %3 = load ptr, ptr %2, align 8
  %4 = getelementptr inbounds %class.CodeSection, ptr %3, i32 0, i32 2
  %5 = load ptr, ptr %4, align 8
  ret ptr %5
}

; Function Attrs: mustprogress nounwind uwtable
define linkonce_odr hidden noundef ptr @_ZNK17AbstractAssembler12code_sectionEv(ptr noundef nonnull align 8 dereferenceable(24) %0) #1 comdat align 2 {
  %2 = alloca ptr, align 8
  store ptr %0, ptr %2, align 8
  %3 = load ptr, ptr %2, align 8
  %4 = getelementptr inbounds %class.AbstractAssembler, ptr %3, i32 0, i32 1
  %5 = load ptr, ptr %4, align 8
  ret ptr %5
}

; Function Attrs: mustprogress nounwind uwtable
define linkonce_odr hidden void @_ZN14AddressLiteralC2EOS_(ptr noundef nonnull align 8 dereferenceable(56) %0, ptr noundef nonnull align 8 dereferenceable(56) %1) unnamed_addr #1 comdat align 2 {
  %3 = alloca ptr, align 8
  %4 = alloca ptr, align 8
  store ptr %0, ptr %3, align 8
  store ptr %1, ptr %4, align 8
  %5 = load ptr, ptr %3, align 8
  %6 = getelementptr inbounds %class.AddressLiteral, ptr %5, i32 0, i32 0
  %7 = load ptr, ptr %4, align 8
  %8 = getelementptr inbounds %class.AddressLiteral, ptr %7, i32 0, i32 0
  call void @_ZN16RelocationHolderC2ERKS_(ptr noundef nonnull align 8 dereferenceable(40) %6, ptr noundef nonnull align 8 dereferenceable(40) %8)
  %9 = getelementptr inbounds %class.AddressLiteral, ptr %5, i32 0, i32 1
  %10 = load ptr, ptr %4, align 8
  %11 = getelementptr inbounds %class.AddressLiteral, ptr %10, i32 0, i32 1
  call void @llvm.memcpy.p0.p0.i64(ptr align 8 %9, ptr align 8 %11, i64 16, i1 false)
  ret void
}

; Function Attrs: mustprogress nounwind uwtable
define linkonce_odr hidden void @_ZN15ExternalAddressC2EPh(ptr noundef nonnull align 8 dereferenceable(56) %0, ptr noundef %1) unnamed_addr #1 comdat align 2 {
  %3 = alloca ptr, align 8
  %4 = alloca ptr, align 8
  store ptr %0, ptr %3, align 8
  store ptr %1, ptr %4, align 8
  %5 = load ptr, ptr %3, align 8
  %6 = load ptr, ptr %4, align 8
  %7 = load ptr, ptr %4, align 8
  %8 = call noundef i32 @_ZN15ExternalAddress16reloc_for_targetEPh(ptr noundef %7)
  call void @_ZN14AddressLiteralC2EPhN9relocInfo9relocTypeE(ptr noundef nonnull align 8 dereferenceable(56) %5, ptr noundef %6, i32 noundef %8)
  ret void
}

; Function Attrs: mustprogress nounwind uwtable
define linkonce_odr hidden noundef ptr @_ZN12StubRoutines3x8621crc_table_avx512_addrEv() #1 comdat align 2 {
  ret ptr @_ZN12StubRoutines3x8617_crc_table_avx512E
}

; Function Attrs: mustprogress nounwind uwtable
define linkonce_odr hidden noundef zeroext i1 @_ZN10VM_Version17supports_avx512vlEv() #1 comdat align 2 {
  %1 = load i64, ptr @_ZN19Abstract_VM_Version9_featuresE, align 8
  %2 = and i64 %1, 8589934592
  %3 = icmp ne i64 %2, 0
  ret i1 %3
}

; Function Attrs: mustprogress nounwind uwtable
define linkonce_odr hidden noundef zeroext i1 @_ZN10VM_Version17supports_avx512bwEv() #1 comdat align 2 {
  %1 = load i64, ptr @_ZN19Abstract_VM_Version9_featuresE, align 8
  %2 = and i64 %1, 4294967296
  %3 = icmp ne i64 %2, 0
  ret i1 %3
}

; Function Attrs: mustprogress nounwind uwtable
define linkonce_odr hidden noundef zeroext i1 @_ZN10VM_Version26supports_avx512_vpclmulqdqEv() #1 comdat align 2 {
  %1 = load i64, ptr @_ZN19Abstract_VM_Version9_featuresE, align 8
  %2 = and i64 %1, 274877906944
  %3 = icmp ne i64 %2, 0
  ret i1 %3
}

; Function Attrs: mustprogress nounwind uwtable
define linkonce_odr hidden noundef zeroext i1 @_ZN10VM_Version15supports_sse4_1Ev() #1 comdat align 2 {
  %1 = load i64, ptr @_ZN19Abstract_VM_Version9_featuresE, align 8
  %2 = and i64 %1, 2048
  %3 = icmp ne i64 %2, 0
  ret i1 %3
}

; Function Attrs: mustprogress nounwind uwtable
define linkonce_odr hidden void @_Z26assert_different_registersI8RegisterJS0_S0_S0_S0_S0_S0_EEvT_DpT0_(i32 %0, i32 %1, i32 %2, i32 %3, i32 %4, i32 %5, i32 %6) #1 comdat {
  %8 = alloca %class.Register, align 4
  %9 = alloca %class.Register, align 4
  %10 = alloca %class.Register, align 4
  %11 = alloca %class.Register, align 4
  %12 = alloca %class.Register, align 4
  %13 = alloca %class.Register, align 4
  %14 = alloca %class.Register, align 4
  %15 = getelementptr inbounds %class.Register, ptr %8, i32 0, i32 0
  store i32 %0, ptr %15, align 4
  %16 = getelementptr inbounds %class.Register, ptr %9, i32 0, i32 0
  store i32 %1, ptr %16, align 4
  %17 = getelementptr inbounds %class.Register, ptr %10, i32 0, i32 0
  store i32 %2, ptr %17, align 4
  %18 = getelementptr inbounds %class.Register, ptr %11, i32 0, i32 0
  store i32 %3, ptr %18, align 4
  %19 = getelementptr inbounds %class.Register, ptr %12, i32 0, i32 0
  store i32 %4, ptr %19, align 4
  %20 = getelementptr inbounds %class.Register, ptr %13, i32 0, i32 0
  store i32 %5, ptr %20, align 4
  %21 = getelementptr inbounds %class.Register, ptr %14, i32 0, i32 0
  store i32 %6, ptr %21, align 4
  ret void
}

; Function Attrs: mustprogress nounwind uwtable
define linkonce_odr hidden noundef ptr @_ZNK17AbstractAssembler2pcEv(ptr noundef nonnull align 8 dereferenceable(24) %0) #1 comdat align 2 {
  %2 = alloca ptr, align 8
  store ptr %0, ptr %2, align 8
  %3 = load ptr, ptr %2, align 8
  %4 = call noundef ptr @_ZNK17AbstractAssembler12code_sectionEv(ptr noundef nonnull align 8 dereferenceable(24) %3)
  %5 = call noundef ptr @_ZNK11CodeSection3endEv(ptr noundef nonnull align 8 dereferenceable(88) %4)
  ret ptr %5
}

; Function Attrs: mustprogress nounwind uwtable
define hidden noundef ptr @_ZN13StubGenerator25generate_updateBytesCRC32Ev(ptr noundef nonnull align 8 dereferenceable(24) %0) #1 align 2 {
  %2 = alloca ptr, align 8
  %3 = alloca %class.StubCodeMark, align 8
  %4 = alloca ptr, align 8
  %5 = alloca %class.Register, align 4
  %6 = alloca %class.Register, align 4
  %7 = alloca %class.Register, align 4
  %8 = alloca %class.Register, align 4
  %9 = alloca %class.Register, align 4
  %10 = alloca %class.Register, align 4
  %11 = alloca %class.Register, align 4
  %12 = alloca %class.Register, align 4
  %13 = alloca %class.Register, align 4
  %14 = alloca %class.Register, align 4
  %15 = alloca %class.Register, align 4
  %16 = alloca %class.Register, align 4
  %17 = alloca %class.Register, align 4
  %18 = alloca %class.Register, align 4
  %19 = alloca %class.AddressLiteral, align 8
  %20 = alloca %class.ExternalAddress, align 8
  %21 = alloca %class.Register, align 4
  %22 = alloca %class.Register, align 4
  %23 = alloca %class.Register, align 4
  %24 = alloca %class.Register, align 4
  %25 = alloca %class.Register, align 4
  %26 = alloca %class.Register, align 4
  %27 = alloca %class.Register, align 4
  %28 = alloca %class.Register, align 4
  %29 = alloca %class.Register, align 4
  %30 = alloca %class.Register, align 4
  %31 = alloca %class.Register, align 4
  %32 = alloca %class.Register, align 4
  %33 = alloca %class.Register, align 4
  %34 = alloca %class.Register, align 4
  %35 = alloca %class.Register, align 4
  store ptr %0, ptr %2, align 8
  %36 = load ptr, ptr %2, align 8
  %37 = getelementptr inbounds %class.StubCodeGenerator, ptr %36, i32 0, i32 2
  %38 = load ptr, ptr %37, align 8
  %39 = load i64, ptr @CodeEntryAlignment, align 8
  %40 = trunc i64 %39 to i32
  call void @_ZN14MacroAssembler5alignEj(ptr noundef nonnull align 8 dereferenceable(40) %38, i32 noundef %40)
  call void @_ZN12StubCodeMarkC1EP17StubCodeGeneratorPKcS3_(ptr noundef nonnull align 8 dereferenceable(16) %3, ptr noundef %36, ptr noundef @.str, ptr noundef @.str.42)
  %41 = getelementptr inbounds %class.StubCodeGenerator, ptr %36, i32 0, i32 2
  %42 = load ptr, ptr %41, align 8
  %43 = call noundef ptr @_ZNK17AbstractAssembler2pcEv(ptr noundef nonnull align 8 dereferenceable(24) %42)
  store ptr %43, ptr %4, align 8
  call void @llvm.memcpy.p0.p0.i64(ptr align 4 %5, ptr align 4 @_ZL7c_rarg0, i64 4, i1 false)
  call void @llvm.memcpy.p0.p0.i64(ptr align 4 %6, ptr align 4 @_ZL7c_rarg1, i64 4, i1 false)
  call void @llvm.memcpy.p0.p0.i64(ptr align 4 %7, ptr align 4 @_ZL7c_rarg2, i64 4, i1 false)
  call void @llvm.memcpy.p0.p0.i64(ptr align 4 %8, ptr align 4 @_ZL7c_rarg3, i64 4, i1 false)
  call void @llvm.memcpy.p0.p0.i64(ptr align 4 %9, ptr align 4 @_ZL3r11, i64 4, i1 false)
  call void @llvm.memcpy.p0.p0.i64(ptr align 4 %10, ptr align 4 @_ZL3r10, i64 4, i1 false)
  call void @llvm.memcpy.p0.p0.i64(ptr align 4 %11, ptr align 4 %5, i64 4, i1 false)
  call void @llvm.memcpy.p0.p0.i64(ptr align 4 %12, ptr align 4 %6, i64 4, i1 false)
  call void @llvm.memcpy.p0.p0.i64(ptr align 4 %13, ptr align 4 %7, i64 4, i1 false)
  call void @llvm.memcpy.p0.p0.i64(ptr align 4 %14, ptr align 4 %8, i64 4, i1 false)
  call void @llvm.memcpy.p0.p0.i64(ptr align 4 %15, ptr align 4 %9, i64 4, i1 false)
  call void @llvm.memcpy.p0.p0.i64(ptr align 4 %16, ptr align 4 %10, i64 4, i1 false)
  call void @llvm.memcpy.p0.p0.i64(ptr align 4 %17, ptr align 4 @_ZL3rax, i64 4, i1 false)
  %44 = getelementptr inbounds %class.Register, ptr %11, i32 0, i32 0
  %45 = load i32, ptr %44, align 4
  %46 = getelementptr inbounds %class.Register, ptr %12, i32 0, i32 0
  %47 = load i32, ptr %46, align 4
  %48 = getelementptr inbounds %class.Register, ptr %13, i32 0, i32 0
  %49 = load i32, ptr %48, align 4
  %50 = getelementptr inbounds %class.Register, ptr %14, i32 0, i32 0
  %51 = load i32, ptr %50, align 4
  %52 = getelementptr inbounds %class.Register, ptr %15, i32 0, i32 0
  %53 = load i32, ptr %52, align 4
  %54 = getelementptr inbounds %class.Register, ptr %16, i32 0, i32 0
  %55 = load i32, ptr %54, align 4
  %56 = getelementptr inbounds %class.Register, ptr %17, i32 0, i32 0
  %57 = load i32, ptr %56, align 4
  call void @_Z26assert_different_registersI8RegisterJS0_S0_S0_S0_S0_S0_EEvT_DpT0_(i32 %45, i32 %47, i32 %49, i32 %51, i32 %53, i32 %55, i32 %57)
  %58 = getelementptr inbounds %class.StubCodeGenerator, ptr %36, i32 0, i32 2
  %59 = load ptr, ptr %58, align 8
  call void @_ZN14MacroAssembler5enterEv(ptr noundef nonnull align 8 dereferenceable(40) %59)
  %60 = call noundef zeroext i1 @_ZN10VM_Version15supports_sse4_1Ev()
  br i1 %60, label %61, label %95

61:                                               ; preds = %1
  %62 = call noundef zeroext i1 @_ZN10VM_Version26supports_avx512_vpclmulqdqEv()
  br i1 %62, label %63, label %95

63:                                               ; preds = %61
  %64 = call noundef zeroext i1 @_ZN10VM_Version17supports_avx512bwEv()
  br i1 %64, label %65, label %95

65:                                               ; preds = %63
  %66 = call noundef zeroext i1 @_ZN10VM_Version17supports_avx512vlEv()
  br i1 %66, label %67, label %95

67:                                               ; preds = %65
  %68 = getelementptr inbounds %class.StubCodeGenerator, ptr %36, i32 0, i32 2
  %69 = load ptr, ptr %68, align 8
  call void @llvm.memcpy.p0.p0.i64(ptr align 4 %18, ptr align 4 %8, i64 4, i1 false)
  %70 = call noundef ptr @_ZN12StubRoutines3x8621crc_table_avx512_addrEv()
  call void @_ZN15ExternalAddressC2EPh(ptr noundef nonnull align 8 dereferenceable(56) %20, ptr noundef %70)
  call void @_ZN14AddressLiteralC2EOS_(ptr noundef nonnull align 8 dereferenceable(56) %19, ptr noundef nonnull align 8 dereferenceable(56) %20)
  %71 = getelementptr inbounds %class.Register, ptr %18, i32 0, i32 0
  %72 = load i32, ptr %71, align 4
  call void @_ZN14MacroAssembler3leaE8Register14AddressLiteral(ptr noundef nonnull align 8 dereferenceable(40) %69, i32 %72, ptr noundef %19)
  %73 = getelementptr inbounds %class.StubCodeGenerator, ptr %36, i32 0, i32 2
  %74 = load ptr, ptr %73, align 8
  call void @llvm.memcpy.p0.p0.i64(ptr align 4 %21, ptr align 4 %5, i64 4, i1 false)
  %75 = getelementptr inbounds %class.Register, ptr %21, i32 0, i32 0
  %76 = load i32, ptr %75, align 4
  call void @_ZN9Assembler4notlE8Register(ptr noundef nonnull align 8 dereferenceable(40) %74, i32 %76)
  %77 = getelementptr inbounds %class.StubCodeGenerator, ptr %36, i32 0, i32 2
  %78 = load ptr, ptr %77, align 8
  call void @llvm.memcpy.p0.p0.i64(ptr align 4 %22, ptr align 4 %5, i64 4, i1 false)
  call void @llvm.memcpy.p0.p0.i64(ptr align 4 %23, ptr align 4 %6, i64 4, i1 false)
  call void @llvm.memcpy.p0.p0.i64(ptr align 4 %24, ptr align 4 %7, i64 4, i1 false)
  call void @llvm.memcpy.p0.p0.i64(ptr align 4 %25, ptr align 4 %8, i64 4, i1 false)
  call void @llvm.memcpy.p0.p0.i64(ptr align 4 %26, ptr align 4 %9, i64 4, i1 false)
  call void @llvm.memcpy.p0.p0.i64(ptr align 4 %27, ptr align 4 %10, i64 4, i1 false)
  %79 = getelementptr inbounds %class.Register, ptr %22, i32 0, i32 0
  %80 = load i32, ptr %79, align 4
  %81 = getelementptr inbounds %class.Register, ptr %23, i32 0, i32 0
  %82 = load i32, ptr %81, align 4
  %83 = getelementptr inbounds %class.Register, ptr %24, i32 0, i32 0
  %84 = load i32, ptr %83, align 4
  %85 = getelementptr inbounds %class.Register, ptr %25, i32 0, i32 0
  %86 = load i32, ptr %85, align 4
  %87 = getelementptr inbounds %class.Register, ptr %26, i32 0, i32 0
  %88 = load i32, ptr %87, align 4
  %89 = getelementptr inbounds %class.Register, ptr %27, i32 0, i32 0
  %90 = load i32, ptr %89, align 4
  call void @_ZN14MacroAssembler19kernel_crc32_avx512E8RegisterS0_S0_S0_S0_S0_(ptr noundef nonnull align 8 dereferenceable(40) %78, i32 %80, i32 %82, i32 %84, i32 %86, i32 %88, i32 %90)
  %91 = getelementptr inbounds %class.StubCodeGenerator, ptr %36, i32 0, i32 2
  %92 = load ptr, ptr %91, align 8
  call void @llvm.memcpy.p0.p0.i64(ptr align 4 %28, ptr align 4 %5, i64 4, i1 false)
  %93 = getelementptr inbounds %class.Register, ptr %28, i32 0, i32 0
  %94 = load i32, ptr %93, align 4
  call void @_ZN9Assembler4notlE8Register(ptr noundef nonnull align 8 dereferenceable(40) %92, i32 %94)
  br label %108

95:                                               ; preds = %65, %63, %61, %1
  %96 = getelementptr inbounds %class.StubCodeGenerator, ptr %36, i32 0, i32 2
  %97 = load ptr, ptr %96, align 8
  call void @llvm.memcpy.p0.p0.i64(ptr align 4 %29, ptr align 4 %5, i64 4, i1 false)
  call void @llvm.memcpy.p0.p0.i64(ptr align 4 %30, ptr align 4 %6, i64 4, i1 false)
  call void @llvm.memcpy.p0.p0.i64(ptr align 4 %31, ptr align 4 %7, i64 4, i1 false)
  call void @llvm.memcpy.p0.p0.i64(ptr align 4 %32, ptr align 4 %8, i64 4, i1 false)
  call void @llvm.memcpy.p0.p0.i64(ptr align 4 %33, ptr align 4 %9, i64 4, i1 false)
  %98 = getelementptr inbounds %class.Register, ptr %29, i32 0, i32 0
  %99 = load i32, ptr %98, align 4
  %100 = getelementptr inbounds %class.Register, ptr %30, i32 0, i32 0
  %101 = load i32, ptr %100, align 4
  %102 = getelementptr inbounds %class.Register, ptr %31, i32 0, i32 0
  %103 = load i32, ptr %102, align 4
  %104 = getelementptr inbounds %class.Register, ptr %32, i32 0, i32 0
  %105 = load i32, ptr %104, align 4
  %106 = getelementptr inbounds %class.Register, ptr %33, i32 0, i32 0
  %107 = load i32, ptr %106, align 4
  call void @_ZN14MacroAssembler12kernel_crc32E8RegisterS0_S0_S0_S0_(ptr noundef nonnull align 8 dereferenceable(40) %97, i32 %99, i32 %101, i32 %103, i32 %105, i32 %107)
  br label %108

108:                                              ; preds = %95, %67
  %109 = getelementptr inbounds %class.StubCodeGenerator, ptr %36, i32 0, i32 2
  %110 = load ptr, ptr %109, align 8
  call void @llvm.memcpy.p0.p0.i64(ptr align 4 %34, ptr align 4 @_ZL3rax, i64 4, i1 false)
  call void @llvm.memcpy.p0.p0.i64(ptr align 4 %35, ptr align 4 %5, i64 4, i1 false)
  %111 = getelementptr inbounds %class.Register, ptr %34, i32 0, i32 0
  %112 = load i32, ptr %111, align 4
  %113 = getelementptr inbounds %class.Register, ptr %35, i32 0, i32 0
  %114 = load i32, ptr %113, align 4
  call void @_ZN9Assembler4movlE8RegisterS0_(ptr noundef nonnull align 8 dereferenceable(40) %110, i32 %112, i32 %114)
  %115 = getelementptr inbounds %class.StubCodeGenerator, ptr %36, i32 0, i32 2
  %116 = load ptr, ptr %115, align 8
  call void @_ZN9Assembler10vzeroupperEv(ptr noundef nonnull align 8 dereferenceable(40) %116)
  %117 = getelementptr inbounds %class.StubCodeGenerator, ptr %36, i32 0, i32 2
  %118 = load ptr, ptr %117, align 8
  call void @_ZN14MacroAssembler5leaveEv(ptr noundef nonnull align 8 dereferenceable(40) %118)
  %119 = getelementptr inbounds %class.StubCodeGenerator, ptr %36, i32 0, i32 2
  %120 = load ptr, ptr %119, align 8
  call void @_ZN9Assembler3retEi(ptr noundef nonnull align 8 dereferenceable(40) %120, i32 noundef 0)
  %121 = load ptr, ptr %4, align 8
  call void @_ZN12StubCodeMarkD1Ev(ptr noundef nonnull align 8 dereferenceable(16) %3) #7
  ret ptr %121
}