; Function Attrs: mustprogress nounwind uwtable
define hidden noundef ptr @_ZN13StubGenerator25generate_updateBytesCRC32Ev(ptr noundef nonnull align 8 dereferenceable(24) %0) local_unnamed_addr #0 align 2 {
  %2 = alloca %class.StubCodeMark, align 8
  %3 = alloca %class.AddressLiteral, align 8
  %4 = alloca %class.ExternalAddress, align 8
  %5 = getelementptr inbounds i8, ptr %0, i64 16
  %6 = load ptr, ptr %5, align 8
  %7 = load i64, ptr @CodeEntryAlignment, align 8
  %8 = trunc i64 %7 to i32
  tail call void @_ZN14MacroAssembler5alignEj(ptr noundef nonnull align 8 dereferenceable(40) %6, i32 noundef %8) #12
  call void @_ZN12StubCodeMarkC1EP17StubCodeGeneratorPKcS3_(ptr noundef nonnull align 8 dereferenceable(16) %2, ptr noundef nonnull %0, ptr noundef nonnull @.str, ptr noundef nonnull @.str.42) #12
  %9 = load ptr, ptr %5, align 8
  %10 = getelementptr inbounds i8, ptr %9, i64 8
  %11 = load ptr, ptr %10, align 8
  %12 = getelementptr inbounds i8, ptr %11, i64 16
  %13 = load ptr, ptr %12, align 8
  call void @_ZN14MacroAssembler5enterEv(ptr noundef nonnull align 8 dereferenceable(40) %9) #12
  %14 = load i64, ptr @_ZN19Abstract_VM_Version9_featuresE, align 8
  %15 = and i64 %14, 287762810880
  %or.cond49 = icmp eq i64 %15, 287762810880
  %16 = load ptr, ptr %5, align 8
  br i1 %or.cond49, label %17, label %26

17:                                               ; preds = %1
  call void @_ZN14AddressLiteralC2EPhN9relocInfo9relocTypeE(ptr noundef nonnull align 8 dereferenceable(56) %4, ptr noundef nonnull @_ZN12StubRoutines3x8617_crc_table_avx512E, i32 noundef 7) #12
  %18 = load ptr, ptr %4, align 8
  %19 = getelementptr inbounds i8, ptr %18, i64 16
  %20 = load ptr, ptr %19, align 8
  call void %20(ptr noundef nonnull align 8 dereferenceable(20) %4, ptr noundef nonnull align 8 dereferenceable(40) %3) #12
  %21 = getelementptr inbounds i8, ptr %3, i64 40
  %22 = getelementptr inbounds i8, ptr %4, i64 40
  call void @llvm.memcpy.p0.p0.i64(ptr noundef nonnull align 8 dereferenceable(16) %21, ptr noundef nonnull align 8 dereferenceable(16) %22, i64 16, i1 false)
  call void @_ZN14MacroAssembler3leaE8Register14AddressLiteral(ptr noundef nonnull align 8 dereferenceable(40) %16, i32 1, ptr noundef nonnull %3) #12
  %23 = load ptr, ptr %5, align 8
  call void @_ZN9Assembler4notlE8Register(ptr noundef nonnull align 8 dereferenceable(40) %23, i32 7) #12
  %24 = load ptr, ptr %5, align 8
  call void @_ZN14MacroAssembler19kernel_crc32_avx512E8RegisterS0_S0_S0_S0_S0_(ptr noundef nonnull align 8 dereferenceable(40) %24, i32 7, i32 6, i32 2, i32 1, i32 11, i32 10) #12
  %25 = load ptr, ptr %5, align 8
  call void @_ZN9Assembler4notlE8Register(ptr noundef nonnull align 8 dereferenceable(40) %25, i32 7) #12
  br label %27

26:                                               ; preds = %1
  call void @_ZN14MacroAssembler12kernel_crc32E8RegisterS0_S0_S0_S0_(ptr noundef nonnull align 8 dereferenceable(40) %16, i32 7, i32 6, i32 2, i32 1, i32 11) #12
  br label %27

27:                                               ; preds = %26, %17
  %28 = load ptr, ptr %5, align 8
  call void @_ZN9Assembler4movlE8RegisterS0_(ptr noundef nonnull align 8 dereferenceable(40) %28, i32 0, i32 7) #12
  %29 = load ptr, ptr %5, align 8
  call void @_ZN9Assembler10vzeroupperEv(ptr noundef nonnull align 8 dereferenceable(40) %29) #12
  %30 = load ptr, ptr %5, align 8
  call void @_ZN14MacroAssembler5leaveEv(ptr noundef nonnull align 8 dereferenceable(40) %30) #12
  %31 = load ptr, ptr %5, align 8
  call void @_ZN9Assembler3retEi(ptr noundef nonnull align 8 dereferenceable(40) %31, i32 noundef 0) #12
  call void @_ZN12StubCodeMarkD1Ev(ptr noundef nonnull align 8 dereferenceable(16) %2) #12
  ret ptr %13
}